target datalayout = "e-m:e-p270:32:32-p271:32:32-p272:64:64-i64:64-i128:128-f80:128-n8:16:32:64-S128"
target triple = "x86_64-pc-linux-gnu"

%"struct.enki::SubTaskSet" = type { ptr, %"struct.enki::TaskSetPartition" }
%"struct.enki::TaskSetPartition" = type { i32, i32 }
%"class.enki::TaskScheduler" = type <{ [3 x ptr], [3 x ptr], i32, [4 x i8], ptr, ptr, %"struct.std::atomic", %"struct.std::atomic", %"struct.std::atomic", i8, %"struct.std::atomic.0", %"struct.std::atomic.0", %"struct.std::atomic.0", i32, [4 x i8], ptr, ptr, i32, i8, [3 x i8], %"struct.enki::TaskSchedulerConfig", %"struct.std::atomic.0", [4 x i8] }>
%"struct.std::atomic" = type { %"struct.std::__atomic_base" }
%"struct.std::__atomic_base" = type { i8 }
%"struct.enki::TaskSchedulerConfig" = type { i32, i32, %"struct.enki::ProfilerCallbacks", %"struct.enki::CustomAllocator" }
%"struct.enki::ProfilerCallbacks" = type { ptr, ptr, ptr, ptr, ptr, ptr, ptr, ptr }
%"struct.enki::CustomAllocator" = type { ptr, ptr, ptr }
%"struct.std::atomic.0" = type { %"struct.std::__atomic_base.1" }
%"struct.std::__atomic_base.1" = type { i32 }
%"class.enki::ICompletable" = type { ptr, i32, %"struct.std::atomic.0", %"struct.std::atomic.0", i32, %"struct.std::atomic.0", ptr }
%"class.enki::IPinnedTask" = type { %"class.enki::ICompletable", i32, %"struct.std::atomic.5" }
%"struct.std::atomic.5" = type { %"struct.std::__atomic_base.6" }
%"struct.std::__atomic_base.6" = type { ptr }
%"class.enki::PinnedTaskList" = type { %"class.enki::LocklessMultiWriteIntrusiveList" }
%"class.enki::LocklessMultiWriteIntrusiveList" = type { %"struct.std::atomic.5", %"class.enki::IPinnedTask" }
%"class.enki::TaskPipe" = type { %"class.enki::LockLessMultiReadPipe.base", [4 x i8] }
%"class.enki::LockLessMultiReadPipe.base" = type <{ [256 x %"struct.enki::SubTaskSet"], %"struct.std::atomic.3", %"struct.std::atomic.3", [256 x %"struct.std::atomic.3"], %"struct.std::atomic.3" }>
%"struct.std::atomic.3" = type { %"struct.std::__atomic_base.4" }
%"struct.std::__atomic_base.4" = type { i32 }
%"class.enki::LockLessMultiReadPipe" = type <{ [256 x %"struct.enki::SubTaskSet"], %"struct.std::atomic.3", %"struct.std::atomic.3", [256 x %"struct.std::atomic.3"], %"struct.std::atomic.3", [4 x i8] }>

; Function Attrs: alwaysinline mustprogress nounwind uwtable
define linkonce_odr dso_local noundef ptr @_ZNKSt13__atomic_baseIPN4enki11IPinnedTaskEE4loadESt12memory_order(ptr noundef nonnull align 8 dereferenceable(8) %0, i32 noundef %1) #9 comdat align 2 {
  %3 = alloca ptr, align 8
  %4 = alloca i32, align 4
  %5 = alloca i32, align 4
  %6 = alloca ptr, align 8
  store ptr %0, ptr %3, align 8, !tbaa !204
  store i32 %1, ptr %4, align 4, !tbaa !72
  %7 = load ptr, ptr %3, align 8
  call void @llvm.lifetime.start.p0(i64 4, ptr %5) #14
  %8 = load i32, ptr %4, align 4, !tbaa !72
  %9 = call noundef i32 @_ZStanSt12memory_orderSt23__memory_order_modifier(i32 noundef %8, i32 noundef 65535)
  store i32 %9, ptr %5, align 4, !tbaa !72
  br label %10

10:                                               ; preds = %2
  br label %11

11:                                               ; preds = %10
  br label %12

12:                                               ; preds = %11
  br label %13

13:                                               ; preds = %12
  br label %14

14:                                               ; preds = %13
  br label %15

15:                                               ; preds = %14
  %16 = getelementptr inbounds nuw %"struct.std::__atomic_base.6", ptr %7, i32 0, i32 0
  %17 = load i32, ptr %4, align 4, !tbaa !72
  switch i32 %17, label %18 [
    i32 1, label %20
    i32 2, label %20
    i32 5, label %22
  ]

18:                                               ; preds = %15
  %19 = load atomic i64, ptr %16 monotonic, align 8
  store i64 %19, ptr %6, align 8
  br label %24

20:                                               ; preds = %15, %15
  %21 = load atomic i64, ptr %16 acquire, align 8
  store i64 %21, ptr %6, align 8
  br label %24

22:                                               ; preds = %15
  %23 = load atomic i64, ptr %16 seq_cst, align 8
  store i64 %23, ptr %6, align 8
  br label %24

24:                                               ; preds = %22, %20, %18
  %25 = load ptr, ptr %6, align 8, !tbaa !42
  call void @llvm.lifetime.end.p0(i64 4, ptr %5) #14
  ret ptr %25
}

; Function Attrs: mustprogress nounwind uwtable
define linkonce_odr dso_local noundef ptr @_ZNKSt13__atomic_baseIPN4enki11IPinnedTaskEEcvS2_Ev(ptr noundef nonnull align 8 dereferenceable(8) %0) #5 comdat align 2 {
  %2 = alloca ptr, align 8
  store ptr %0, ptr %2, align 8, !tbaa !204
  %3 = load ptr, ptr %2, align 8
  %4 = call noundef ptr @_ZNKSt13__atomic_baseIPN4enki11IPinnedTaskEE4loadESt12memory_order(ptr noundef nonnull align 8 dereferenceable(8) %3, i32 noundef 5) #14
  ret ptr %4
}

; Function Attrs: mustprogress nounwind uwtable
define linkonce_odr dso_local noundef i32 @_ZStanSt12memory_orderSt23__memory_order_modifier(i32 noundef %0, i32 noundef %1) #5 comdat {
  %3 = alloca i32, align 4
  %4 = alloca i32, align 4
  store i32 %0, ptr %3, align 4, !tbaa !72
  store i32 %1, ptr %4, align 4, !tbaa !195
  %5 = load i32, ptr %3, align 4, !tbaa !72
  %6 = load i32, ptr %4, align 4, !tbaa !195
  %7 = and i32 %5, %6
  ret i32 %7
}

; Function Attrs: mustprogress nounwind uwtable
define linkonce_odr dso_local noundef ptr @_ZNKSt6atomicIPN4enki11IPinnedTaskEEcvS2_Ev(ptr noundef nonnull align 8 dereferenceable(8) %0) #5 comdat align 2 {
  %2 = alloca ptr, align 8
  store ptr %0, ptr %2, align 8, !tbaa !202
  %3 = load ptr, ptr %2, align 8
  %4 = getelementptr inbounds nuw %"struct.std::atomic.5", ptr %3, i32 0, i32 0
  %5 = call noundef ptr @_ZNKSt13__atomic_baseIPN4enki11IPinnedTaskEEcvS2_Ev(ptr noundef nonnull align 8 dereferenceable(8) %4) #14
  ret ptr %5
}

; Function Attrs: alwaysinline mustprogress nounwind uwtable
define linkonce_odr dso_local noundef i32 @_ZNKSt13__atomic_baseIjE4loadESt12memory_order(ptr noundef nonnull align 4 dereferenceable(4) %0, i32 noundef %1) #9 comdat align 2 {
  %3 = alloca ptr, align 8
  %4 = alloca i32, align 4
  %5 = alloca i32, align 4
  %6 = alloca i32, align 4
  store ptr %0, ptr %3, align 8, !tbaa !216
  store i32 %1, ptr %4, align 4, !tbaa !72
  %7 = load ptr, ptr %3, align 8
  call void @llvm.lifetime.start.p0(i64 4, ptr %5) #14
  %8 = load i32, ptr %4, align 4, !tbaa !72
  %9 = call noundef i32 @_ZStanSt12memory_orderSt23__memory_order_modifier(i32 noundef %8, i32 noundef 65535)
  store i32 %9, ptr %5, align 4, !tbaa !72
  br label %10

10:                                               ; preds = %2
  br label %11

11:                                               ; preds = %10
  br label %12

12:                                               ; preds = %11
  br label %13

13:                                               ; preds = %12
  br label %14

14:                                               ; preds = %13
  br label %15

15:                                               ; preds = %14
  %16 = getelementptr inbounds nuw %"struct.std::__atomic_base.4", ptr %7, i32 0, i32 0
  %17 = load i32, ptr %4, align 4, !tbaa !72
  switch i32 %17, label %18 [
    i32 1, label %20
    i32 2, label %20
    i32 5, label %22
  ]

18:                                               ; preds = %15
  %19 = load atomic i32, ptr %16 monotonic, align 4
  store i32 %19, ptr %6, align 4
  br label %24

20:                                               ; preds = %15, %15
  %21 = load atomic i32, ptr %16 acquire, align 4
  store i32 %21, ptr %6, align 4
  br label %24

22:                                               ; preds = %15
  %23 = load atomic i32, ptr %16 seq_cst, align 4
  store i32 %23, ptr %6, align 4
  br label %24

24:                                               ; preds = %22, %20, %18
  %25 = load i32, ptr %6, align 4, !tbaa !11
  call void @llvm.lifetime.end.p0(i64 4, ptr %5) #14
  ret i32 %25
}

; Function Attrs: mustprogress nounwind uwtable
define linkonce_odr dso_local noundef zeroext i1 @_ZNK4enki31LocklessMultiWriteIntrusiveListINS_11IPinnedTaskEE11IsListEmptyEv(ptr noundef nonnull align 8 dereferenceable(64) %0) #5 comdat align 2 {
  %2 = alloca ptr, align 8
  store ptr %0, ptr %2, align 8, !tbaa !148
  %3 = load ptr, ptr %2, align 8
  %4 = getelementptr inbounds nuw %"class.enki::LocklessMultiWriteIntrusiveList", ptr %3, i32 0, i32 0
  %5 = call noundef ptr @_ZNKSt6atomicIPN4enki11IPinnedTaskEEcvS2_Ev(ptr noundef nonnull align 8 dereferenceable(8) %4) #14
  %6 = getelementptr inbounds nuw %"class.enki::LocklessMultiWriteIntrusiveList", ptr %3, i32 0, i32 1
  %7 = icmp eq ptr %5, %6
  ret i1 %7
}

; Function Attrs: mustprogress nounwind uwtable
define linkonce_odr dso_local noundef zeroext i1 @_ZNK4enki21LockLessMultiReadPipeILh8ENS_10SubTaskSetEE11IsPipeEmptyEv(ptr noundef nonnull align 8 dereferenceable(5132) %0) #5 comdat align 2 {
  %2 = alloca ptr, align 8
  store ptr %0, ptr %2, align 8, !tbaa !131
  %3 = load ptr, ptr %2, align 8
  %4 = getelementptr inbounds nuw %"class.enki::LockLessMultiReadPipe", ptr %3, i32 0, i32 1
  %5 = call noundef i32 @_ZNKSt13__atomic_baseIjE4loadESt12memory_order(ptr noundef nonnull align 4 dereferenceable(4) %4, i32 noundef 0) #14
  %6 = getelementptr inbounds nuw %"class.enki::LockLessMultiReadPipe", ptr %3, i32 0, i32 2
  %7 = call noundef i32 @_ZNKSt13__atomic_baseIjE4loadESt12memory_order(ptr noundef nonnull align 4 dereferenceable(4) %6, i32 noundef 0) #14
  %8 = sub i32 %5, %7
  %9 = icmp eq i32 0, %8
  ret i1 %9
}

; Function Attrs: mustprogress uwtable
define dso_local noundef zeroext i1 @_ZN4enki13TaskScheduler9HaveTasksEj(ptr noundef nonnull align 8 dereferenceable(220) %0, i32 noundef %1) #0 align 2 {
  %3 = alloca i1, align 1
  %4 = alloca ptr, align 8
  %5 = alloca i32, align 4
  %6 = alloca i32, align 4
  %7 = alloca i32, align 4
  %8 = alloca i32, align 4
  store ptr %0, ptr %4, align 8, !tbaa !4
  store i32 %1, ptr %5, align 4, !tbaa !11
  %9 = load ptr, ptr %4, align 8
  call void @llvm.lifetime.start.p0(i64 4, ptr %6) #14
  store i32 0, ptr %6, align 4, !tbaa !11
  br label %10

10:                                               ; preds = %50, %2
  %11 = load i32, ptr %6, align 4, !tbaa !11
  %12 = icmp slt i32 %11, 3
  br i1 %12, label %14, label %13

13:                                               ; preds = %10
  store i32 2, ptr %7, align 4
  br label %53

14:                                               ; preds = %10
  call void @llvm.lifetime.start.p0(i64 4, ptr %8) #14
  store i32 0, ptr %8, align 4, !tbaa !11
  br label %15

15:                                               ; preds = %33, %14
  %16 = load i32, ptr %8, align 4, !tbaa !11
  %17 = getelementptr inbounds nuw %"class.enki::TaskScheduler", ptr %9, i32 0, i32 2
  %18 = load i32, ptr %17, align 8, !tbaa !91
  %19 = icmp ult i32 %16, %18
  br i1 %19, label %21, label %20

20:                                               ; preds = %15
  store i32 5, ptr %7, align 4
  br label %36

21:                                               ; preds = %15
  %22 = getelementptr inbounds nuw %"class.enki::TaskScheduler", ptr %9, i32 0, i32 0
  %23 = load i32, ptr %6, align 4, !tbaa !11
  %24 = sext i32 %23 to i64
  %25 = getelementptr inbounds [3 x ptr], ptr %22, i64 0, i64 %24
  %26 = load ptr, ptr %25, align 8, !tbaa !92
  %27 = load i32, ptr %8, align 4, !tbaa !11
  %28 = zext i32 %27 to i64
  %29 = getelementptr inbounds nuw %"class.enki::TaskPipe", ptr %26, i64 %28
  %30 = call noundef zeroext i1 @_ZNK4enki21LockLessMultiReadPipeILh8ENS_10SubTaskSetEE11IsPipeEmptyEv(ptr noundef nonnull align 8 dereferenceable(5132) %29)
  br i1 %30, label %32, label %31

31:                                               ; preds = %21
  store i1 true, ptr %3, align 1
  store i32 1, ptr %7, align 4
  br label %36

32:                                               ; preds = %21
  br label %33

33:                                               ; preds = %32
  %34 = load i32, ptr %8, align 4, !tbaa !11
  %35 = add i32 %34, 1
  store i32 %35, ptr %8, align 4, !tbaa !11
  br label %15, !llvm.loop !146

36:                                               ; preds = %31, %20
  call void @llvm.lifetime.end.p0(i64 4, ptr %8) #14
  %37 = load i32, ptr %7, align 4
  switch i32 %37, label %53 [
    i32 5, label %38
  ]

38:                                               ; preds = %36
  %39 = getelementptr inbounds nuw %"class.enki::TaskScheduler", ptr %9, i32 0, i32 1
  %40 = load i32, ptr %6, align 4, !tbaa !11
  %41 = sext i32 %40 to i64
  %42 = getelementptr inbounds [3 x ptr], ptr %39, i64 0, i64 %41
  %43 = load ptr, ptr %42, align 8, !tbaa !45
  %44 = load i32, ptr %5, align 4, !tbaa !11
  %45 = zext i32 %44 to i64
  %46 = getelementptr inbounds nuw %"class.enki::PinnedTaskList", ptr %43, i64 %45
  %47 = call noundef zeroext i1 @_ZNK4enki31LocklessMultiWriteIntrusiveListINS_11IPinnedTaskEE11IsListEmptyEv(ptr noundef nonnull align 8 dereferenceable(64) %46)
  br i1 %47, label %49, label %48

48:                                               ; preds = %38
  store i1 true, ptr %3, align 1
  store i32 1, ptr %7, align 4
  br label %53

49:                                               ; preds = %38
  br label %50

50:                                               ; preds = %49
  %51 = load i32, ptr %6, align 4, !tbaa !11
  %52 = add nsw i32 %51, 1
  store i32 %52, ptr %6, align 4, !tbaa !11
  br label %10, !llvm.loop !147

53:                                               ; preds = %48, %36, %13
  call void @llvm.lifetime.end.p0(i64 4, ptr %6) #14
  %54 = load i32, ptr %7, align 4
  switch i32 %54, label %58 [
    i32 2, label %55
    i32 1, label %56
  ]

55:                                               ; preds = %53
  store i1 false, ptr %3, align 1
  br label %56

56:                                               ; preds = %55, %53
  %57 = load i1, ptr %3, align 1
  ret i1 %57

58:                                               ; preds = %53
  unreachable
}