; Function Attrs: mustprogress nofree norecurse nounwind memory(readwrite, inaccessiblemem: none) uwtable
define dso_local noundef zeroext i1 @_ZN4enki13TaskScheduler9HaveTasksEj(ptr noundef nonnull readonly align 8 captures(none) dereferenceable(220) %0, i32 noundef %1) local_unnamed_addr #12 align 2 {
  %3 = getelementptr inbounds nuw i8, ptr %0, i64 48
  %4 = getelementptr inbounds nuw i8, ptr %0, i64 24
  %5 = zext i32 %1 to i64
  br label %.preheader

.preheader:                                       ; preds = %._crit_edge, %2
  %indvars.iv23 = phi i64 [ 0, %2 ], [ %indvars.iv.next24, %._crit_edge ]
  %6 = load i32, ptr %3, align 8, !tbaa !72
  %.not18.not = icmp eq i32 %6, 0
  br i1 %.not18.not, label %._crit_edge, label %.lr.ph

.lr.ph:                                           ; preds = %.preheader
  %7 = getelementptr inbounds nuw [3 x ptr], ptr %0, i64 0, i64 %indvars.iv23
  %8 = load ptr, ptr %7, align 8, !tbaa !73
  %wide.trip.count = zext i32 %6 to i64
  br label %10

9:                                                ; preds = %10
  %indvars.iv.next = add nuw nsw i64 %indvars.iv, 1
  %exitcond.not = icmp eq i64 %indvars.iv.next, %wide.trip.count
  br i1 %exitcond.not, label %._crit_edge, label %10, !llvm.loop !75

10:                                               ; preds = %.lr.ph, %9
  %indvars.iv = phi i64 [ 0, %.lr.ph ], [ %indvars.iv.next, %9 ]
  %11 = getelementptr inbounds nuw %"class.enki::TaskPipe", ptr %8, i64 %indvars.iv
  %12 = getelementptr inbounds nuw i8, ptr %11, i64 4096
  %13 = load atomic i32, ptr %12 monotonic, align 4
  %14 = getelementptr inbounds nuw i8, ptr %11, i64 4100
  %15 = load atomic i32, ptr %14 monotonic, align 4
  %16 = icmp eq i32 %13, %15
  br i1 %16, label %9, label %.thread

._crit_edge:                                      ; preds = %9, %.preheader
  %17 = getelementptr inbounds nuw [3 x ptr], ptr %4, i64 0, i64 %indvars.iv23
  %18 = load ptr, ptr %17, align 8, !tbaa !44
  %19 = getelementptr inbounds nuw %"class.enki::PinnedTaskList", ptr %18, i64 %5
  %20 = load atomic i64, ptr %19 seq_cst, align 8
  %.0.i.i.i.i = inttoptr i64 %20 to ptr
  %21 = getelementptr inbounds nuw i8, ptr %19, i64 8
  %.not = icmp ne ptr %21, %.0.i.i.i.i
  %indvars.iv.next24 = add nuw nsw i64 %indvars.iv23, 1
  %exitcond26.not = icmp eq i64 %indvars.iv.next24, 3
  %or.cond = select i1 %.not, i1 true, i1 %exitcond26.not
  br i1 %or.cond, label %.thread, label %.preheader, !llvm.loop !71

.thread:                                          ; preds = %._crit_edge, %10
  %22 = phi i1 [ true, %10 ], [ %.not, %._crit_edge ]
  ret i1 %22
}